target datalayout = "e-m:e-p270:32:32-p271:32:32-p272:64:64-i64:64-i128:128-f80:128-n8:16:32:64-S128"
target triple = "x86_64-pc-linux-gnu"

%struct._zend_accel_globals = type { i8, i8, i8, i8, i8, %struct._zend_accel_directives, ptr, ptr, [32 x i8], [32 x i8], i32, i8, i32, i8, i32, i64, i64, %struct._zend_array, i64, ptr, ptr, ptr, ptr, ptr }
%struct._zend_accel_directives = type { i64, i64, double, ptr, i64, i8, i8, i8, i8, i8, i8, i8, i8, i8, i8, i8, i64, i64, ptr, ptr, i64, i64, i64, i64, i64, ptr, ptr, ptr, i8, i8, i8, i8, ptr, ptr }
%struct._zend_array = type { %struct._zend_refcounted_h, %union.anon.0, i32, %union.anon.1, i32, i32, i32, i32, i64, ptr }
%struct._zend_refcounted_h = type { i32, %union.anon }
%union.anon = type { i32 }
%union.anon.0 = type { i32 }
%union.anon.1 = type { ptr }
%struct._sapi_module_struct = type { ptr, ptr, ptr, ptr, ptr, ptr, ptr, ptr, ptr, ptr, ptr, ptr, ptr, ptr, ptr, ptr, ptr, ptr, ptr, ptr, ptr, ptr, ptr, ptr, i32, i32, ptr, ptr, ptr, ptr, ptr, ptr, i32, ptr, ptr, ptr }
%struct._zend_executor_globals = type { %struct._zval_struct, %struct._zval_struct, [32 x ptr], ptr, ptr, %struct._zend_array, %struct._zend_array, ptr, i32, i8, %struct._zval_struct, i32, ptr, ptr, ptr, ptr, ptr, ptr, i64, ptr, ptr, i32, ptr, i32, i64, i32, i32, i32, i8, i8, %struct.zend_atomic_bool_s, %struct.zend_atomic_bool_s, ptr, i64, ptr, ptr, %struct._zend_array, %struct._zend_array, i32, i8, %struct._zval_struct, %struct._zval_struct, %struct._zend_stack, %struct._zend_stack, %struct._zend_stack, ptr, i32, i32, i64, ptr, ptr, ptr, %struct._zend_objects_store, %struct._zend_lazy_objects_store, ptr, ptr, ptr, [3 x %struct._zend_op], ptr, i8, i8, i64, i32, i32, ptr, [16 x %struct._HashTableIterator], ptr, %union._zend_function, %struct._zend_op, %struct._zend_array, i64, %struct.zend_get_gc_buffer, ptr, ptr, ptr, i64, i8, i32, ptr, ptr, i64, %struct._zend_call_stack, i64, i64, %struct._zend_strtod_state, [6 x ptr] }
%struct.zend_atomic_bool_s = type { i8 }
%struct._zval_struct = type { %union._zend_value, %union.anon.3, %union.anon.6 }
%union._zend_value = type { i64 }
%union.anon.3 = type { i32 }
%union.anon.6 = type { i32 }
%struct._zend_stack = type { i32, i32, i32, ptr }
%struct._zend_objects_store = type { ptr, i32, i32, i32 }
%struct._zend_lazy_objects_store = type { %struct._zend_array }
%struct._HashTableIterator = type { ptr, i32, i32 }
%union._zend_function = type { %struct._zend_op_array }
%struct._zend_op_array = type { i8, [3 x i8], i32, ptr, ptr, ptr, i32, i32, ptr, ptr, ptr, ptr, i32, ptr, i32, i32, i32, ptr, ptr, ptr, ptr, ptr, i32, i32, ptr, ptr, ptr, i32, i32, i32, i32, ptr, ptr, [6 x ptr] }
%struct._zend_op = type { ptr, %union._znode_op, %union._znode_op, %union._znode_op, i32, i32, i8, i8, i8, i8 }
%union._znode_op = type { i32 }
%struct.zend_get_gc_buffer = type { ptr, ptr, ptr }
%struct._zend_call_stack = type { ptr, i64 }
%struct._zend_strtod_state = type { [8 x ptr], ptr, ptr }
%struct._zend_signal_globals_t = type { i32, i32, i32, i32, i8, i8, [65 x %struct._zend_signal_entry_t], [64 x %struct._zend_signal_queue_t], ptr, ptr, ptr }
%struct._zend_signal_entry_t = type { i32, ptr }
%struct._zend_signal_queue_t = type { %struct._zend_signal_t, ptr }
%struct._zend_signal_t = type { i32, ptr, ptr }
%struct._zend_llist = type { ptr, ptr, i64, i64, ptr, i8, ptr }
%struct._php_core_globals = type { i64, i8, i8, i8, i8, i8, i8, i8, i8, ptr, ptr, i64, i64, i64, ptr, ptr, ptr, ptr, ptr, i8, ptr, ptr, ptr, ptr, i64, ptr, ptr, ptr, ptr, ptr, ptr, ptr, %struct._arg_separators, ptr, %struct._zend_array, i16, i8, i8, %struct._zend_llist, [6 x %struct._zval_struct], i8, i8, i8, i8, i8, ptr, ptr, i64, [8 x i8], i8, i8, i8, i8, i8, i8, i32, i32, ptr, ptr, ptr, ptr, i64, i64, ptr, i64, ptr, ptr, i8, i8, i8, i8, i8, i8, i64, ptr, i64, i64 }
%struct._arg_separators = type { ptr, ptr }
%struct._sapi_globals_struct = type { ptr, %struct.sapi_request_info, %struct.sapi_headers_struct, i64, i8, i8, %struct.stat, ptr, ptr, ptr, i64, i32, i8, double, %struct._zend_array, %struct._zval_struct, %struct._zend_fcall_info_cache, %struct.sapi_request_parse_body_context }
%struct.sapi_request_info = type { ptr, ptr, ptr, i64, ptr, ptr, ptr, ptr, i8, i8, i8, ptr, ptr, ptr, ptr, ptr, ptr, ptr, i32, i32, ptr, i32 }
%struct.sapi_headers_struct = type { %struct._zend_llist, i32, i8, ptr, ptr }
%struct.stat = type { i64, i64, i64, i32, i32, i32, i32, i64, i64, i64, i64, %struct.timespec, %struct.timespec, %struct.timespec, [3 x i64] }
%struct.timespec = type { i64, i64 }
%struct._zend_fcall_info_cache = type { ptr, ptr, ptr, ptr, ptr }
%struct.sapi_request_parse_body_context = type { i8, [5 x %struct.anon.15] }
%struct.anon.15 = type { i8, i64 }

@accel_globals = hidden global %struct._zend_accel_globals zeroinitializer, align 8
@sapi_module = external global %struct._sapi_module_struct, align 8
@executor_globals = external global %struct._zend_executor_globals, align 8
@zend_signal_globals = external global %struct._zend_signal_globals_t, align 8
@core_globals = external global %struct._php_core_globals, align 8
@sapi_globals = external global %struct._sapi_globals_struct, align 8
@stdout = external global ptr, align 8

; Function Attrs: nounwind uwtable
define internal void @preload_flush(ptr noundef %0) #0 {
  %2 = alloca ptr, align 8
  store ptr %0, ptr %2, align 8, !tbaa !40
  %3 = load ptr, ptr @stdout, align 8, !tbaa !323
  %4 = call i32 @fflush(ptr noundef %3)
  ret void
}

; Function Attrs: nounwind uwtable
define internal i32 @accel_finish_startup_preload(i1 noundef zeroext %0) #0 {
  %2 = alloca i8, align 1
  %3 = alloca i32, align 4
  %4 = alloca i32, align 4
  %5 = alloca ptr, align 8
  %6 = alloca ptr, align 8
  %7 = alloca ptr, align 8
  %8 = alloca ptr, align 8
  %9 = alloca ptr, align 8
  %10 = alloca ptr, align 8
  %11 = alloca ptr, align 8
  %12 = alloca ptr, align 8
  %13 = alloca ptr, align 8
  %14 = alloca i8, align 1
  %15 = alloca i32, align 4
  %16 = alloca i8, align 1
  %17 = zext i1 %0 to i8
  store i8 %17, ptr %2, align 1, !tbaa !53
  call void @llvm.lifetime.start.p0(i64 4, ptr %3) #19
  store i32 0, ptr %3, align 4, !tbaa !4
  call void @llvm.lifetime.start.p0(i64 4, ptr %4) #19
  call void @llvm.lifetime.start.p0(i64 8, ptr %5) #19
  %18 = load ptr, ptr getelementptr inbounds nuw (%struct._sapi_module_struct, ptr @sapi_module, i32 0, i32 4), align 8, !tbaa !412
  store ptr %18, ptr %5, align 8, !tbaa !40
  call void @llvm.lifetime.start.p0(i64 8, ptr %6) #19
  %19 = load ptr, ptr getelementptr inbounds nuw (%struct._sapi_module_struct, ptr @sapi_module, i32 0, i32 5), align 8, !tbaa !413
  store ptr %19, ptr %6, align 8, !tbaa !40
  call void @llvm.lifetime.start.p0(i64 8, ptr %7) #19
  %20 = load ptr, ptr getelementptr inbounds nuw (%struct._sapi_module_struct, ptr @sapi_module, i32 0, i32 16), align 8, !tbaa !414
  store ptr %20, ptr %7, align 8, !tbaa !40
  call void @llvm.lifetime.start.p0(i64 8, ptr %8) #19
  %21 = load ptr, ptr getelementptr inbounds nuw (%struct._sapi_module_struct, ptr @sapi_module, i32 0, i32 11), align 8, !tbaa !415
  store ptr %21, ptr %8, align 8, !tbaa !40
  call void @llvm.lifetime.start.p0(i64 8, ptr %9) #19
  %22 = load ptr, ptr getelementptr inbounds nuw (%struct._sapi_module_struct, ptr @sapi_module, i32 0, i32 12), align 8, !tbaa !416
  store ptr %22, ptr %9, align 8, !tbaa !40
  call void @llvm.lifetime.start.p0(i64 8, ptr %10) #19
  %23 = load ptr, ptr getelementptr inbounds nuw (%struct._sapi_module_struct, ptr @sapi_module, i32 0, i32 13), align 8, !tbaa !417
  store ptr %23, ptr %10, align 8, !tbaa !40
  call void @llvm.lifetime.start.p0(i64 8, ptr %11) #19
  %24 = load ptr, ptr getelementptr inbounds nuw (%struct._sapi_module_struct, ptr @sapi_module, i32 0, i32 9), align 8, !tbaa !418
  store ptr %24, ptr %11, align 8, !tbaa !40
  call void @llvm.lifetime.start.p0(i64 8, ptr %12) #19
  %25 = load ptr, ptr getelementptr inbounds nuw (%struct._sapi_module_struct, ptr @sapi_module, i32 0, i32 6), align 8, !tbaa !419
  store ptr %25, ptr %12, align 8, !tbaa !40
  call void @llvm.lifetime.start.p0(i64 8, ptr %13) #19
  %26 = load ptr, ptr getelementptr inbounds nuw (%struct._sapi_module_struct, ptr @sapi_module, i32 0, i32 7), align 8, !tbaa !420
  store ptr %26, ptr %13, align 8, !tbaa !40
  call void @llvm.lifetime.start.p0(i64 1, ptr %14) #19
  %27 = load i8, ptr getelementptr inbounds nuw (%struct._zend_signal_globals_t, ptr @zend_signal_globals, i32 0, i32 5), align 1, !tbaa !421, !range !38, !noundef !39
  %28 = trunc i8 %27 to i1
  %29 = zext i1 %28 to i8
  store i8 %29, ptr %14, align 1, !tbaa !53
  store ptr null, ptr getelementptr inbounds nuw (%struct._sapi_module_struct, ptr @sapi_module, i32 0, i32 4), align 8, !tbaa !412
  store ptr null, ptr getelementptr inbounds nuw (%struct._sapi_module_struct, ptr @sapi_module, i32 0, i32 5), align 8, !tbaa !413
  store ptr null, ptr getelementptr inbounds nuw (%struct._sapi_module_struct, ptr @sapi_module, i32 0, i32 16), align 8, !tbaa !414
  store ptr @preload_header_handler, ptr getelementptr inbounds nuw (%struct._sapi_module_struct, ptr @sapi_module, i32 0, i32 11), align 8, !tbaa !415
  store ptr @preload_send_headers, ptr getelementptr inbounds nuw (%struct._sapi_module_struct, ptr @sapi_module, i32 0, i32 12), align 8, !tbaa !416
  store ptr @preload_send_header, ptr getelementptr inbounds nuw (%struct._sapi_module_struct, ptr @sapi_module, i32 0, i32 13), align 8, !tbaa !417
  store ptr null, ptr getelementptr inbounds nuw (%struct._sapi_module_struct, ptr @sapi_module, i32 0, i32 9), align 8, !tbaa !418
  store ptr @preload_ub_write, ptr getelementptr inbounds nuw (%struct._sapi_module_struct, ptr @sapi_module, i32 0, i32 6), align 8, !tbaa !419
  store ptr @preload_flush, ptr getelementptr inbounds nuw (%struct._sapi_module_struct, ptr @sapi_module, i32 0, i32 7), align 8, !tbaa !420
  call void @zend_interned_strings_switch_storage(i1 noundef zeroext true)
  store i8 0, ptr getelementptr inbounds nuw (%struct._zend_signal_globals_t, ptr @zend_signal_globals, i32 0, i32 5), align 1, !tbaa !421
  %30 = load i32, ptr getelementptr inbounds nuw (%struct._zend_executor_globals, ptr @executor_globals, i32 0, i32 8), align 8, !tbaa !126
  store i32 %30, ptr %4, align 4, !tbaa !4
  store i32 0, ptr getelementptr inbounds nuw (%struct._zend_executor_globals, ptr @executor_globals, i32 0, i32 8), align 8, !tbaa !126
  call void @llvm.lifetime.start.p0(i64 4, ptr %15) #19
  %31 = call i32 @php_request_startup()
  store i32 %31, ptr %15, align 4, !tbaa !4
  %32 = load i32, ptr %4, align 4, !tbaa !4
  store i32 %32, ptr getelementptr inbounds nuw (%struct._zend_executor_globals, ptr @executor_globals, i32 0, i32 8), align 8, !tbaa !126
  %33 = load i32, ptr %15, align 4, !tbaa !4
  %34 = icmp eq i32 %33, 0
  br i1 %34, label %35, label %51

35:                                               ; preds = %1
  call void @llvm.lifetime.start.p0(i64 1, ptr %16) #19
  store i8 1, ptr getelementptr inbounds nuw (%struct._sapi_globals_struct, ptr @sapi_globals, i32 0, i32 5), align 1, !tbaa !422
  store i8 1, ptr getelementptr inbounds nuw (%struct.sapi_request_info, ptr getelementptr inbounds nuw (%struct._sapi_globals_struct, ptr @sapi_globals, i32 0, i32 1), i32 0, i32 9), align 1, !tbaa !429
  call void @php_output_set_status(i32 noundef 0)
  store i32 0, ptr getelementptr inbounds nuw (%struct._zend_accel_globals, ptr @accel_globals, i32 0, i32 14), align 8, !tbaa !194
  %36 = call double @sapi_get_request_time()
  %37 = fptosi double %36 to i64
  store i64 %37, ptr getelementptr inbounds nuw (%struct._zend_accel_globals, ptr @accel_globals, i32 0, i32 15), align 8, !tbaa !152
  store ptr null, ptr getelementptr inbounds nuw (%struct._zend_accel_globals, ptr @accel_globals, i32 0, i32 21), align 8, !tbaa !168
  store ptr null, ptr getelementptr inbounds nuw (%struct._zend_accel_globals, ptr @accel_globals, i32 0, i32 22), align 8, !tbaa !169
  store i32 0, ptr getelementptr inbounds nuw (%struct._zend_accel_globals, ptr @accel_globals, i32 0, i32 10), align 8, !tbaa !159
  store i8 1, ptr getelementptr inbounds nuw (%struct._zend_accel_globals, ptr @accel_globals, i32 0, i32 11), align 4, !tbaa !161
  store ptr null, ptr getelementptr inbounds nuw (%struct._zend_accel_globals, ptr @accel_globals, i32 0, i32 6), align 8, !tbaa !162
  store i32 0, ptr getelementptr inbounds nuw (%struct._zend_accel_globals, ptr @accel_globals, i32 0, i32 12), align 8, !tbaa !156
  store i8 1, ptr getelementptr inbounds nuw (%struct._zend_accel_globals, ptr @accel_globals, i32 0, i32 13), align 4, !tbaa !157
  %38 = load ptr, ptr getelementptr inbounds nuw (%struct._zend_accel_directives, ptr getelementptr inbounds nuw (%struct._zend_accel_globals, ptr @accel_globals, i32 0, i32 5), i32 0, i32 32), align 8, !tbaa !352
  %39 = load i8, ptr %2, align 1, !tbaa !53, !range !38, !noundef !39
  %40 = trunc i8 %39 to i1
  %41 = call i32 @accel_preload(ptr noundef %38, i1 noundef zeroext %40)
  %42 = icmp ne i32 %41, 0
  br i1 %42, label %43, label %44

43:                                               ; preds = %35
  store i32 -1, ptr %3, align 4, !tbaa !4
  br label %44

44:                                               ; preds = %43, %35
  call void @preload_flush(ptr noundef null)
  %45 = load i8, ptr getelementptr inbounds nuw (%struct._php_core_globals, ptr @core_globals, i32 0, i32 8), align 1, !tbaa !430, !range !38, !noundef !39
  %46 = trunc i8 %45 to i1
  %47 = zext i1 %46 to i8
  store i8 %47, ptr %16, align 1, !tbaa !53
  store i8 0, ptr getelementptr inbounds nuw (%struct._php_core_globals, ptr @core_globals, i32 0, i32 8), align 1, !tbaa !430
  store i8 0, ptr getelementptr inbounds nuw (%struct._zend_signal_globals_t, ptr @zend_signal_globals, i32 0, i32 4), align 8, !tbaa !431
  call void @php_request_shutdown(ptr noundef null)
  store ptr null, ptr getelementptr inbounds nuw (%struct._zend_executor_globals, ptr @executor_globals, i32 0, i32 13), align 8, !tbaa !221
  store ptr null, ptr getelementptr inbounds nuw (%struct._zend_executor_globals, ptr @executor_globals, i32 0, i32 12), align 8, !tbaa !219
  %48 = load i8, ptr %16, align 1, !tbaa !53, !range !38, !noundef !39
  %49 = trunc i8 %48 to i1
  %50 = zext i1 %49 to i8
  store i8 %50, ptr getelementptr inbounds nuw (%struct._php_core_globals, ptr @core_globals, i32 0, i32 8), align 1, !tbaa !430
  call void @llvm.lifetime.end.p0(i64 1, ptr %16) #19
  br label %52

51:                                               ; preds = %1
  call void @zend_shared_alloc_unlock()
  store i32 -1, ptr %3, align 4, !tbaa !4
  br label %52

52:                                               ; preds = %51, %44
  %53 = load i8, ptr %14, align 1, !tbaa !53, !range !38, !noundef !39
  %54 = trunc i8 %53 to i1
  %55 = zext i1 %54 to i8
  store i8 %55, ptr getelementptr inbounds nuw (%struct._zend_signal_globals_t, ptr @zend_signal_globals, i32 0, i32 5), align 1, !tbaa !421
  %56 = load ptr, ptr %5, align 8, !tbaa !40
  store ptr %56, ptr getelementptr inbounds nuw (%struct._sapi_module_struct, ptr @sapi_module, i32 0, i32 4), align 8, !tbaa !412
  %57 = load ptr, ptr %6, align 8, !tbaa !40
  store ptr %57, ptr getelementptr inbounds nuw (%struct._sapi_module_struct, ptr @sapi_module, i32 0, i32 5), align 8, !tbaa !413
  %58 = load ptr, ptr %7, align 8, !tbaa !40
  store ptr %58, ptr getelementptr inbounds nuw (%struct._sapi_module_struct, ptr @sapi_module, i32 0, i32 16), align 8, !tbaa !414
  %59 = load ptr, ptr %8, align 8, !tbaa !40
  store ptr %59, ptr getelementptr inbounds nuw (%struct._sapi_module_struct, ptr @sapi_module, i32 0, i32 11), align 8, !tbaa !415
  %60 = load ptr, ptr %9, align 8, !tbaa !40
  store ptr %60, ptr getelementptr inbounds nuw (%struct._sapi_module_struct, ptr @sapi_module, i32 0, i32 12), align 8, !tbaa !416
  %61 = load ptr, ptr %10, align 8, !tbaa !40
  store ptr %61, ptr getelementptr inbounds nuw (%struct._sapi_module_struct, ptr @sapi_module, i32 0, i32 13), align 8, !tbaa !417
  %62 = load ptr, ptr %11, align 8, !tbaa !40
  store ptr %62, ptr getelementptr inbounds nuw (%struct._sapi_module_struct, ptr @sapi_module, i32 0, i32 9), align 8, !tbaa !418
  %63 = load ptr, ptr %12, align 8, !tbaa !40
  store ptr %63, ptr getelementptr inbounds nuw (%struct._sapi_module_struct, ptr @sapi_module, i32 0, i32 6), align 8, !tbaa !419
  %64 = load ptr, ptr %13, align 8, !tbaa !40
  store ptr %64, ptr getelementptr inbounds nuw (%struct._sapi_module_struct, ptr @sapi_module, i32 0, i32 7), align 8, !tbaa !420
  call void @sapi_activate()
  %65 = load i32, ptr %3, align 4, !tbaa !4
  call void @llvm.lifetime.end.p0(i64 4, ptr %15) #19
  call void @llvm.lifetime.end.p0(i64 1, ptr %14) #19
  call void @llvm.lifetime.end.p0(i64 8, ptr %13) #19
  call void @llvm.lifetime.end.p0(i64 8, ptr %12) #19
  call void @llvm.lifetime.end.p0(i64 8, ptr %11) #19
  call void @llvm.lifetime.end.p0(i64 8, ptr %10) #19
  call void @llvm.lifetime.end.p0(i64 8, ptr %9) #19
  call void @llvm.lifetime.end.p0(i64 8, ptr %8) #19
  call void @llvm.lifetime.end.p0(i64 8, ptr %7) #19
  call void @llvm.lifetime.end.p0(i64 8, ptr %6) #19
  call void @llvm.lifetime.end.p0(i64 8, ptr %5) #19
  call void @llvm.lifetime.end.p0(i64 4, ptr %4) #19
  call void @llvm.lifetime.end.p0(i64 4, ptr %3) #19
  ret i32 %65
}