; Function Attrs: nounwind uwtable
define internal fastcc range(i32 -1, 1) i32 @accel_finish_startup_preload(i1 noundef zeroext %0) unnamed_addr #0 {
  %2 = load ptr, ptr getelementptr inbounds nuw (i8, ptr @sapi_module, i64 32), align 8, !tbaa !363
  %3 = load ptr, ptr getelementptr inbounds nuw (i8, ptr @sapi_module, i64 40), align 8, !tbaa !364
  %4 = load ptr, ptr getelementptr inbounds nuw (i8, ptr @sapi_module, i64 128), align 8, !tbaa !365
  %5 = load ptr, ptr getelementptr inbounds nuw (i8, ptr @sapi_module, i64 88), align 8, !tbaa !366
  %6 = load ptr, ptr getelementptr inbounds nuw (i8, ptr @sapi_module, i64 96), align 8, !tbaa !367
  %7 = load ptr, ptr getelementptr inbounds nuw (i8, ptr @sapi_module, i64 104), align 8, !tbaa !368
  %8 = load ptr, ptr getelementptr inbounds nuw (i8, ptr @sapi_module, i64 72), align 8, !tbaa !369
  %9 = load ptr, ptr getelementptr inbounds nuw (i8, ptr @sapi_module, i64 48), align 8, !tbaa !370
  %10 = load ptr, ptr getelementptr inbounds nuw (i8, ptr @sapi_module, i64 56), align 8, !tbaa !371
  %11 = load i8, ptr getelementptr inbounds nuw (i8, ptr @zend_signal_globals, i64 17), align 1, !tbaa !372, !range !37, !noundef !38
  store ptr null, ptr getelementptr inbounds nuw (i8, ptr @sapi_module, i64 128), align 8, !tbaa !365
  tail call void @llvm.memset.p0.i64(ptr noundef nonnull align 8 dereferenceable(16) getelementptr inbounds nuw (i8, ptr @sapi_module, i64 32), i8 0, i64 16, i1 false)
  store ptr @preload_header_handler, ptr getelementptr inbounds nuw (i8, ptr @sapi_module, i64 88), align 8, !tbaa !366
  store ptr @preload_send_headers, ptr getelementptr inbounds nuw (i8, ptr @sapi_module, i64 96), align 8, !tbaa !367
  store ptr @preload_send_header, ptr getelementptr inbounds nuw (i8, ptr @sapi_module, i64 104), align 8, !tbaa !368
  store ptr null, ptr getelementptr inbounds nuw (i8, ptr @sapi_module, i64 72), align 8, !tbaa !369
  store ptr @preload_ub_write, ptr getelementptr inbounds nuw (i8, ptr @sapi_module, i64 48), align 8, !tbaa !370
  store ptr @preload_flush, ptr getelementptr inbounds nuw (i8, ptr @sapi_module, i64 56), align 8, !tbaa !371
  tail call void @zend_interned_strings_switch_storage(i1 noundef zeroext true) #26
  store i8 0, ptr getelementptr inbounds nuw (i8, ptr @zend_signal_globals, i64 17), align 1, !tbaa !372
  %12 = load i32, ptr getelementptr inbounds nuw (i8, ptr @executor_globals, i64 424), align 8, !tbaa !91
  store i32 0, ptr getelementptr inbounds nuw (i8, ptr @executor_globals, i64 424), align 8, !tbaa !91
  %13 = tail call i32 @php_request_startup() #26
  store i32 %12, ptr getelementptr inbounds nuw (i8, ptr @executor_globals, i64 424), align 8, !tbaa !91
  %14 = icmp eq i32 %13, 0
  br i1 %14, label %15, label %23

15:                                               ; preds = %1
  store i8 1, ptr getelementptr inbounds nuw (i8, ptr @sapi_globals, i64 249), align 1, !tbaa !373
  store i8 1, ptr getelementptr inbounds nuw (i8, ptr @sapi_globals, i64 73), align 1, !tbaa !381
  tail call void @php_output_set_status(i32 noundef 0) #26
  store i32 0, ptr getelementptr inbounds nuw (i8, ptr @accel_globals, i64 280), align 8, !tbaa !200
  %16 = tail call double @sapi_get_request_time() #26
  %17 = fptosi double %16 to i64
  store i64 %17, ptr getelementptr inbounds nuw (i8, ptr @accel_globals, i64 288), align 8, !tbaa !140
  store i32 0, ptr getelementptr inbounds nuw (i8, ptr @accel_globals, i64 264), align 8, !tbaa !149
  tail call void @llvm.memset.p0.i64(ptr noundef nonnull align 8 dereferenceable(16) getelementptr inbounds nuw (i8, ptr @accel_globals, i64 384), i8 0, i64 16, i1 false)
  store i8 1, ptr getelementptr inbounds nuw (i8, ptr @accel_globals, i64 268), align 4, !tbaa !151
  store ptr null, ptr getelementptr inbounds nuw (i8, ptr @accel_globals, i64 184), align 8, !tbaa !153
  store i32 0, ptr getelementptr inbounds nuw (i8, ptr @accel_globals, i64 272), align 8, !tbaa !145
  store i8 1, ptr getelementptr inbounds nuw (i8, ptr @accel_globals, i64 276), align 4, !tbaa !146
  %18 = load ptr, ptr getelementptr inbounds nuw (i8, ptr @accel_globals, i64 168), align 8, !tbaa !315
  %19 = tail call fastcc i32 @accel_preload(ptr noundef %18, i1 noundef zeroext %0)
  %.not = icmp ne i32 %19, 0
  %spec.select = sext i1 %.not to i32
  %20 = load ptr, ptr @stdout, align 8, !tbaa !382
  %21 = tail call i32 @fflush(ptr noundef %20)
  %22 = load i8, ptr getelementptr inbounds nuw (i8, ptr @core_globals, i64 15), align 1, !tbaa !383, !range !37, !noundef !38
  store i8 0, ptr getelementptr inbounds nuw (i8, ptr @core_globals, i64 15), align 1, !tbaa !383
  store i8 0, ptr getelementptr inbounds nuw (i8, ptr @zend_signal_globals, i64 16), align 8, !tbaa !384
  tail call void @php_request_shutdown(ptr noundef null) #26
  tail call void @llvm.memset.p0.i64(ptr noundef nonnull align 8 dereferenceable(16) getelementptr inbounds nuw (i8, ptr @executor_globals, i64 456), i8 0, i64 16, i1 false)
  store i8 %22, ptr getelementptr inbounds nuw (i8, ptr @core_globals, i64 15), align 1, !tbaa !383
  br label %24

23:                                               ; preds = %1
  tail call void @zend_shared_alloc_unlock() #26
  br label %24

24:                                               ; preds = %23, %15
  %.1 = phi i32 [ %spec.select, %15 ], [ -1, %23 ]
  store i8 %11, ptr getelementptr inbounds nuw (i8, ptr @zend_signal_globals, i64 17), align 1, !tbaa !372
  store ptr %2, ptr getelementptr inbounds nuw (i8, ptr @sapi_module, i64 32), align 8, !tbaa !363
  store ptr %3, ptr getelementptr inbounds nuw (i8, ptr @sapi_module, i64 40), align 8, !tbaa !364
  store ptr %4, ptr getelementptr inbounds nuw (i8, ptr @sapi_module, i64 128), align 8, !tbaa !365
  store ptr %5, ptr getelementptr inbounds nuw (i8, ptr @sapi_module, i64 88), align 8, !tbaa !366
  store ptr %6, ptr getelementptr inbounds nuw (i8, ptr @sapi_module, i64 96), align 8, !tbaa !367
  store ptr %7, ptr getelementptr inbounds nuw (i8, ptr @sapi_module, i64 104), align 8, !tbaa !368
  store ptr %8, ptr getelementptr inbounds nuw (i8, ptr @sapi_module, i64 72), align 8, !tbaa !369
  store ptr %9, ptr getelementptr inbounds nuw (i8, ptr @sapi_module, i64 48), align 8, !tbaa !370
  store ptr %10, ptr getelementptr inbounds nuw (i8, ptr @sapi_module, i64 56), align 8, !tbaa !371
  tail call void @sapi_activate() #26
  ret i32 %.1
}